target datalayout = "e-m:e-p270:32:32-p271:32:32-p272:64:64-i64:64-i128:128-f80:128-n8:16:32:64-S128"
target triple = "x86_64-pc-linux-gnu"

%class.QuickOpen = type <{ ptr, i8, [7 x i8], ptr, ptr, ptr, i64, %class.CryptData, i8, [7 x i8], i64, i64, i64, i64, i64, i64, %class.Array, i64, i64, i8, [7 x i8] }>
%class.CryptData = type { [4 x %"struct.CryptData::KDF3CacheItem"], i32, [4 x i8], [4 x %"struct.CryptData::KDF5CacheItem"], i32, i32, %class.Rijndael, [256 x i32], [256 x i8], [4 x i32], [3 x i8], [4 x i16], [4 x i8] }
%"struct.CryptData::KDF3CacheItem" = type { %class.SecPassword, [8 x i8], [16 x i8], [16 x i8], i8, [7 x i8] }
%class.SecPassword = type <{ %"class.std::vector", i8, [7 x i8] }>
%"class.std::vector" = type { %"struct.std::_Vector_base" }
%"struct.std::_Vector_base" = type { %"struct.std::_Vector_base<wchar_t, std::allocator<wchar_t>>::_Vector_impl" }
%"struct.std::_Vector_base<wchar_t, std::allocator<wchar_t>>::_Vector_impl" = type { %"struct.std::_Vector_base<wchar_t, std::allocator<wchar_t>>::_Vector_impl_data" }
%"struct.std::_Vector_base<wchar_t, std::allocator<wchar_t>>::_Vector_impl_data" = type { ptr, ptr, ptr }
%"struct.CryptData::KDF5CacheItem" = type { %class.SecPassword, [16 x i8], [32 x i8], i32, [32 x i8], [32 x i8], [4 x i8] }
%class.Rijndael = type { i8, i32, [16 x i8], [15 x [4 x [4 x i8]]] }
%class.Array = type { ptr, i64, i64, i64 }

; Function Attrs: mustprogress uwtable
define noundef zeroext i1 @_ZN9QuickOpen7ReadRawER7RawRead(ptr noundef nonnull align 8 dereferenceable(2673) %0, ptr noundef nonnull align 8 dereferenceable(64) %1) #0 align 2 {
  %3 = alloca i1, align 1
  %4 = alloca ptr, align 8
  %5 = alloca ptr, align 8
  %6 = alloca i64, align 8
  %7 = alloca i64, align 8
  %8 = alloca i32, align 4
  %9 = alloca i32, align 4
  %10 = alloca i64, align 8
  %11 = alloca i32, align 4
  %12 = alloca i64, align 8
  %13 = alloca i64, align 8
  store ptr %0, ptr %4, align 8
  store ptr %1, ptr %5, align 8
  %14 = load ptr, ptr %4, align 8
  %15 = getelementptr inbounds %class.QuickOpen, ptr %14, i32 0, i32 15
  %16 = load i64, ptr %15, align 8
  %17 = sub i64 65536, %16
  %18 = icmp ult i64 %17, 256
  br i1 %18, label %19, label %37

19:                                               ; preds = %2
  %20 = getelementptr inbounds %class.QuickOpen, ptr %14, i32 0, i32 14
  %21 = load i64, ptr %20, align 8
  %22 = getelementptr inbounds %class.QuickOpen, ptr %14, i32 0, i32 15
  %23 = load i64, ptr %22, align 8
  %24 = sub i64 %21, %23
  store i64 %24, ptr %6, align 8
  %25 = getelementptr inbounds %class.QuickOpen, ptr %14, i32 0, i32 5
  %26 = load ptr, ptr %25, align 8
  %27 = getelementptr inbounds %class.QuickOpen, ptr %14, i32 0, i32 5
  %28 = load ptr, ptr %27, align 8
  %29 = getelementptr inbounds %class.QuickOpen, ptr %14, i32 0, i32 15
  %30 = load i64, ptr %29, align 8
  %31 = getelementptr inbounds i8, ptr %28, i64 %30
  %32 = load i64, ptr %6, align 8
  call void @llvm.memcpy.p0.p0.i64(ptr align 1 %26, ptr align 1 %31, i64 %32, i1 false)
  %33 = getelementptr inbounds %class.QuickOpen, ptr %14, i32 0, i32 15
  store i64 0, ptr %33, align 8
  %34 = load i64, ptr %6, align 8
  %35 = getelementptr inbounds %class.QuickOpen, ptr %14, i32 0, i32 14
  store i64 %34, ptr %35, align 8
  %36 = call noundef i32 @_ZN9QuickOpen10ReadBufferEv(ptr noundef nonnull align 8 dereferenceable(2673) %14)
  br label %37

37:                                               ; preds = %19, %2
  store i64 7, ptr %7, align 8
  %38 = getelementptr inbounds %class.QuickOpen, ptr %14, i32 0, i32 15
  %39 = load i64, ptr %38, align 8
  %40 = add i64 %39, 7
  %41 = getelementptr inbounds %class.QuickOpen, ptr %14, i32 0, i32 14
  %42 = load i64, ptr %41, align 8
  %43 = icmp ugt i64 %40, %42
  br i1 %43, label %44, label %45

44:                                               ; preds = %37
  store i1 false, ptr %3, align 1
  br label %132

45:                                               ; preds = %37
  %46 = load ptr, ptr %5, align 8
  %47 = getelementptr inbounds %class.QuickOpen, ptr %14, i32 0, i32 5
  %48 = load ptr, ptr %47, align 8
  %49 = getelementptr inbounds %class.QuickOpen, ptr %14, i32 0, i32 15
  %50 = load i64, ptr %49, align 8
  %51 = getelementptr inbounds i8, ptr %48, i64 %50
  call void @_ZN7RawRead4ReadEPhm(ptr noundef nonnull align 8 dereferenceable(64) %46, ptr noundef %51, i64 noundef 7)
  %52 = getelementptr inbounds %class.QuickOpen, ptr %14, i32 0, i32 15
  %53 = load i64, ptr %52, align 8
  %54 = add i64 %53, 7
  store i64 %54, ptr %52, align 8
  %55 = load ptr, ptr %5, align 8
  %56 = call noundef i32 @_ZN7RawRead4Get4Ev(ptr noundef nonnull align 8 dereferenceable(64) %55)
  store i32 %56, ptr %8, align 4
  %57 = load ptr, ptr %5, align 8
  %58 = call noundef i32 @_ZN7RawRead8GetVSizeEm(ptr noundef nonnull align 8 dereferenceable(64) %57, i64 noundef 4)
  store i32 %58, ptr %9, align 4
  %59 = load ptr, ptr %5, align 8
  %60 = call noundef i64 @_ZN7RawRead4GetVEv(ptr noundef nonnull align 8 dereferenceable(64) %59)
  store i64 %60, ptr %10, align 8
  %61 = load i64, ptr %10, align 8
  %62 = trunc i64 %61 to i32
  store i32 %62, ptr %11, align 4
  %63 = load i32, ptr %9, align 4
  %64 = zext i32 %63 to i64
  %65 = sub i64 7, %64
  %66 = sub i64 %65, 4
  %67 = load i32, ptr %11, align 4
  %68 = sext i32 %67 to i64
  %69 = sub i64 %68, %66
  %70 = trunc i64 %69 to i32
  store i32 %70, ptr %11, align 4
  %71 = load i32, ptr %11, align 4
  %72 = icmp slt i32 %71, 0
  br i1 %72, label %79, label %73

73:                                               ; preds = %45
  %74 = load i32, ptr %9, align 4
  %75 = icmp eq i32 %74, 0
  br i1 %75, label %79, label %76

76:                                               ; preds = %73
  %77 = load i64, ptr %10, align 8
  %78 = icmp eq i64 %77, 0
  br i1 %78, label %79, label %81

79:                                               ; preds = %76, %73, %45
  %80 = getelementptr inbounds %class.QuickOpen, ptr %14, i32 0, i32 8
  store i8 0, ptr %80, align 8
  store i1 false, ptr %3, align 1
  br label %132

81:                                               ; preds = %76
  br label %82

82:                                               ; preds = %126, %81
  %83 = load i32, ptr %11, align 4
  %84 = icmp sgt i32 %83, 0
  br i1 %84, label %85, label %127

85:                                               ; preds = %82
  %86 = getelementptr inbounds %class.QuickOpen, ptr %14, i32 0, i32 14
  %87 = load i64, ptr %86, align 8
  %88 = getelementptr inbounds %class.QuickOpen, ptr %14, i32 0, i32 15
  %89 = load i64, ptr %88, align 8
  %90 = sub i64 %87, %89
  store i64 %90, ptr %12, align 8
  %91 = load i64, ptr %12, align 8
  %92 = load i32, ptr %11, align 4
  %93 = sext i32 %92 to i64
  %94 = icmp ult i64 %91, %93
  br i1 %94, label %95, label %97

95:                                               ; preds = %85
  %96 = load i64, ptr %12, align 8
  br label %100

97:                                               ; preds = %85
  %98 = load i32, ptr %11, align 4
  %99 = sext i32 %98 to i64
  br label %100

100:                                              ; preds = %97, %95
  %101 = phi i64 [ %96, %95 ], [ %99, %97 ]
  store i64 %101, ptr %13, align 8
  %102 = load ptr, ptr %5, align 8
  %103 = getelementptr inbounds %class.QuickOpen, ptr %14, i32 0, i32 5
  %104 = load ptr, ptr %103, align 8
  %105 = getelementptr inbounds %class.QuickOpen, ptr %14, i32 0, i32 15
  %106 = load i64, ptr %105, align 8
  %107 = getelementptr inbounds i8, ptr %104, i64 %106
  %108 = load i64, ptr %13, align 8
  call void @_ZN7RawRead4ReadEPhm(ptr noundef nonnull align 8 dereferenceable(64) %102, ptr noundef %107, i64 noundef %108)
  %109 = load i64, ptr %13, align 8
  %110 = getelementptr inbounds %class.QuickOpen, ptr %14, i32 0, i32 15
  %111 = load i64, ptr %110, align 8
  %112 = add i64 %111, %109
  store i64 %112, ptr %110, align 8
  %113 = load i64, ptr %13, align 8
  %114 = trunc i64 %113 to i32
  %115 = load i32, ptr %11, align 4
  %116 = sub nsw i32 %115, %114
  store i32 %116, ptr %11, align 4
  %117 = load i32, ptr %11, align 4
  %118 = icmp sgt i32 %117, 0
  br i1 %118, label %119, label %126

119:                                              ; preds = %100
  %120 = getelementptr inbounds %class.QuickOpen, ptr %14, i32 0, i32 15
  store i64 0, ptr %120, align 8
  %121 = getelementptr inbounds %class.QuickOpen, ptr %14, i32 0, i32 14
  store i64 0, ptr %121, align 8
  %122 = call noundef i32 @_ZN9QuickOpen10ReadBufferEv(ptr noundef nonnull align 8 dereferenceable(2673) %14)
  %123 = icmp eq i32 %122, 0
  br i1 %123, label %124, label %125

124:                                              ; preds = %119
  store i1 false, ptr %3, align 1
  br label %132

125:                                              ; preds = %119
  br label %126

126:                                              ; preds = %125, %100
  br label %82, !llvm.loop !7

127:                                              ; preds = %82
  %128 = load i32, ptr %8, align 4
  %129 = load ptr, ptr %5, align 8
  %130 = call noundef i32 @_ZN7RawRead8GetCRC50Ev(ptr noundef nonnull align 8 dereferenceable(64) %129)
  %131 = icmp eq i32 %128, %130
  store i1 %131, ptr %3, align 1
  br label %132

132:                                              ; preds = %127, %124, %79, %44
  %133 = load i1, ptr %3, align 1
  ret i1 %133
}