; Function Attrs: mustprogress uwtable
define noundef zeroext i1 @_ZN9QuickOpen7ReadRawER7RawRead(ptr noundef nonnull align 8 dereferenceable(2673) %0, ptr noundef nonnull align 8 dereferenceable(64) %1) local_unnamed_addr #0 align 2 {
  %3 = getelementptr inbounds i8, ptr %0, i64 2616
  %4 = load i64, ptr %3, align 8
  %5 = add i64 %4, -65281
  %6 = icmp ult i64 %5, 256
  br i1 %6, label %7, label %15

7:                                                ; preds = %2
  %8 = getelementptr inbounds i8, ptr %0, i64 2608
  %9 = load i64, ptr %8, align 8
  %10 = sub i64 %9, %4
  %11 = getelementptr inbounds i8, ptr %0, i64 32
  %12 = load ptr, ptr %11, align 8
  %13 = getelementptr inbounds i8, ptr %12, i64 %4
  tail call void @llvm.memcpy.p0.p0.i64(ptr align 1 %12, ptr align 1 %13, i64 %10, i1 false)
  store i64 0, ptr %3, align 8
  store i64 %10, ptr %8, align 8
  %14 = tail call noundef i32 @_ZN9QuickOpen10ReadBufferEv(ptr noundef nonnull align 8 dereferenceable(2673) %0), !range !6
  %.pre = load i64, ptr %3, align 8
  br label %15

15:                                               ; preds = %7, %2
  %16 = phi i64 [ %.pre, %7 ], [ %4, %2 ]
  %17 = add i64 %16, 7
  %18 = getelementptr inbounds i8, ptr %0, i64 2608
  %19 = load i64, ptr %18, align 8
  %20 = icmp ugt i64 %17, %19
  br i1 %20, label %.loopexit, label %21

21:                                               ; preds = %15
  %22 = getelementptr inbounds i8, ptr %0, i64 32
  %23 = load ptr, ptr %22, align 8
  %24 = getelementptr inbounds i8, ptr %23, i64 %16
  tail call void @_ZN7RawRead4ReadEPhm(ptr noundef nonnull align 8 dereferenceable(64) %1, ptr noundef %24, i64 noundef 7)
  %25 = load i64, ptr %3, align 8
  %26 = add i64 %25, 7
  store i64 %26, ptr %3, align 8
  %27 = tail call noundef i32 @_ZN7RawRead4Get4Ev(ptr noundef nonnull align 8 dereferenceable(64) %1)
  %28 = tail call noundef i32 @_ZN7RawRead8GetVSizeEm(ptr noundef nonnull align 8 dereferenceable(64) %1, i64 noundef 4)
  %29 = tail call noundef i64 @_ZN7RawRead4GetVEv(ptr noundef nonnull align 8 dereferenceable(64) %1)
  %30 = zext i32 %28 to i64
  %.neg = add nuw nsw i64 %30, 4294967293
  %31 = add i64 %.neg, %29
  %32 = trunc i64 %31 to i32
  %33 = icmp slt i32 %32, 0
  %34 = icmp eq i32 %28, 0
  %or.cond = or i1 %34, %33
  %35 = icmp eq i64 %29, 0
  %or.cond3 = or i1 %35, %or.cond
  br i1 %or.cond3, label %36, label %.preheader

.preheader:                                       ; preds = %21
  %.not = icmp eq i32 %32, 0
  br i1 %.not, label %._crit_edge, label %.lr.ph

36:                                               ; preds = %21
  %37 = getelementptr inbounds i8, ptr %0, i64 2568
  store i8 0, ptr %37, align 8
  br label %.loopexit

.lr.ph:                                           ; preds = %.preheader, %50
  %.02931 = phi i32 [ %48, %50 ], [ %32, %.preheader ]
  %38 = load i64, ptr %18, align 8
  %39 = load i64, ptr %3, align 8
  %40 = sub i64 %38, %39
  %41 = zext nneg i32 %.02931 to i64
  %42 = tail call i64 @llvm.umin.i64(i64 %40, i64 %41)
  %43 = load ptr, ptr %22, align 8
  %44 = getelementptr inbounds i8, ptr %43, i64 %39
  tail call void @_ZN7RawRead4ReadEPhm(ptr noundef nonnull align 8 dereferenceable(64) %1, ptr noundef %44, i64 noundef %42)
  %45 = load i64, ptr %3, align 8
  %46 = add i64 %45, %42
  store i64 %46, ptr %3, align 8
  %47 = trunc nuw nsw i64 %42 to i32
  %48 = sub nsw i32 %.02931, %47
  %49 = icmp sgt i32 %48, 0
  br i1 %49, label %50, label %._crit_edge

50:                                               ; preds = %.lr.ph
  tail call void @llvm.memset.p0.i64(ptr noundef nonnull align 8 dereferenceable(16) %18, i8 0, i64 16, i1 false)
  %51 = tail call noundef i32 @_ZN9QuickOpen10ReadBufferEv(ptr noundef nonnull align 8 dereferenceable(2673) %0), !range !6
  %52 = icmp eq i32 %51, 0
  br i1 %52, label %.loopexit, label %.lr.ph, !llvm.loop !8

._crit_edge:                                      ; preds = %.lr.ph, %.preheader
  %53 = tail call noundef i32 @_ZN7RawRead8GetCRC50Ev(ptr noundef nonnull align 8 dereferenceable(64) %1)
  %54 = icmp eq i32 %27, %53
  br label %.loopexit

.loopexit:                                        ; preds = %50, %15, %._crit_edge, %36
  %.0 = phi i1 [ false, %36 ], [ %54, %._crit_edge ], [ false, %15 ], [ false, %50 ]
  ret i1 %.0
}